target datalayout = "e-m:e-p270:32:32-p271:32:32-p272:64:64-i64:64-i128:128-f80:128-n8:16:32:64-S128"
target triple = "x86_64-pc-linux-gnu"

%struct.SystemThemeData = type { ptr, i32 }
%struct.DBusMessageIter = type { ptr, ptr, i32, i32, i32, i32, i32, i32, i32, i32, i32, i32, ptr, ptr }
%struct.SDL_DBusContext = type { ptr, ptr, ptr, ptr, ptr, ptr, ptr, ptr, ptr, ptr, ptr, ptr, ptr, ptr, ptr, ptr, ptr, ptr, ptr, ptr, ptr, ptr, ptr, ptr, ptr, ptr, ptr, ptr, ptr, ptr, ptr, ptr, ptr, ptr, ptr, ptr, ptr, ptr, ptr, ptr, ptr, ptr, ptr, ptr, ptr, ptr, ptr, ptr, ptr, ptr }

@system_theme_data = internal global %struct.SystemThemeData zeroinitializer, align 8

; Function Attrs: nounwind uwtable
define internal zeroext i1 @DBus_ExtractThemeVariant(ptr noundef %0, ptr noundef %1) #0 {
  %3 = alloca i1, align 1
  %4 = alloca ptr, align 8
  %5 = alloca ptr, align 8
  %6 = alloca ptr, align 8
  %7 = alloca i32, align 4
  %8 = alloca %struct.DBusMessageIter, align 8
  %9 = alloca i32, align 4
  store ptr %0, ptr %4, align 8
  store ptr %1, ptr %5, align 8
  call void @llvm.lifetime.start.p0(i64 8, ptr %6) #3
  %10 = load ptr, ptr @system_theme_data, align 8
  store ptr %10, ptr %6, align 8
  call void @llvm.lifetime.start.p0(i64 4, ptr %7) #3
  call void @llvm.lifetime.start.p0(i64 72, ptr %8) #3
  %11 = load ptr, ptr %6, align 8
  %12 = getelementptr inbounds nuw %struct.SDL_DBusContext, ptr %11, i32 0, i32 37
  %13 = load ptr, ptr %12, align 8
  %14 = load ptr, ptr %4, align 8
  %15 = call i32 %13(ptr noundef %14)
  %16 = icmp ne i32 %15, 118
  br i1 %16, label %17, label %18

17:                                               ; preds = %2
  store i1 false, ptr %3, align 1
  store i32 1, ptr %9, align 4
  br label %41

18:                                               ; preds = %2
  %19 = load ptr, ptr %6, align 8
  %20 = getelementptr inbounds nuw %struct.SDL_DBusContext, ptr %19, i32 0, i32 38
  %21 = load ptr, ptr %20, align 8
  %22 = load ptr, ptr %4, align 8
  call void %21(ptr noundef %22, ptr noundef %8)
  %23 = load ptr, ptr %6, align 8
  %24 = getelementptr inbounds nuw %struct.SDL_DBusContext, ptr %23, i32 0, i32 37
  %25 = load ptr, ptr %24, align 8
  %26 = call i32 %25(ptr noundef %8)
  %27 = icmp ne i32 %26, 117
  br i1 %27, label %28, label %29

28:                                               ; preds = %18
  store i1 false, ptr %3, align 1
  store i32 1, ptr %9, align 4
  br label %41

29:                                               ; preds = %18
  %30 = load ptr, ptr %6, align 8
  %31 = getelementptr inbounds nuw %struct.SDL_DBusContext, ptr %30, i32 0, i32 36
  %32 = load ptr, ptr %31, align 8
  call void %32(ptr noundef %8, ptr noundef %7)
  %33 = load i32, ptr %7, align 4
  switch i32 %33, label %40 [
    i32 0, label %34
    i32 1, label %36
    i32 2, label %38
  ]

34:                                               ; preds = %29
  %35 = load ptr, ptr %5, align 8
  store i32 0, ptr %35, align 4
  br label %40

36:                                               ; preds = %29
  %37 = load ptr, ptr %5, align 8
  store i32 2, ptr %37, align 4
  br label %40

38:                                               ; preds = %29
  %39 = load ptr, ptr %5, align 8
  store i32 1, ptr %39, align 4
  br label %40

40:                                               ; preds = %29, %38, %36, %34
  store i1 true, ptr %3, align 1
  store i32 1, ptr %9, align 4
  br label %41

41:                                               ; preds = %40, %28, %17
  call void @llvm.lifetime.end.p0(i64 72, ptr %8) #3
  call void @llvm.lifetime.end.p0(i64 4, ptr %7) #3
  call void @llvm.lifetime.end.p0(i64 8, ptr %6) #3
  %42 = load i1, ptr %3, align 1
  ret i1 %42
}