; Function Attrs: nounwind uwtable
define internal fastcc noundef zeroext i1 @DBus_ExtractThemeVariant(ptr noundef nonnull %0) unnamed_addr #0 {
  %2 = alloca i32, align 4
  %3 = alloca %struct.DBusMessageIter, align 8
  %4 = load ptr, ptr @system_theme_data.0, align 8
  call void @llvm.lifetime.start.p0(i64 4, ptr nonnull %2) #4
  call void @llvm.lifetime.start.p0(i64 72, ptr nonnull %3) #4
  %5 = getelementptr inbounds nuw i8, ptr %4, i64 296
  %6 = load ptr, ptr %5, align 8
  %7 = tail call i32 %6(ptr noundef nonnull %0) #4
  %.not = icmp eq i32 %7, 118
  br i1 %.not, label %8, label %19

8:                                                ; preds = %1
  %9 = getelementptr inbounds nuw i8, ptr %4, i64 304
  %10 = load ptr, ptr %9, align 8
  call void %10(ptr noundef nonnull %0, ptr noundef nonnull %3) #4
  %11 = load ptr, ptr %5, align 8
  %12 = call i32 %11(ptr noundef nonnull %3) #4
  %.not10 = icmp eq i32 %12, 117
  br i1 %.not10, label %13, label %19

13:                                               ; preds = %8
  %14 = getelementptr inbounds nuw i8, ptr %4, i64 288
  %15 = load ptr, ptr %14, align 8
  call void %15(ptr noundef nonnull %3, ptr noundef nonnull %2) #4
  %16 = load i32, ptr %2, align 4
  %17 = icmp ult i32 %16, 3
  br i1 %17, label %switch.lookup, label %19

switch.lookup:                                    ; preds = %13
  %18 = zext nneg i32 %16 to i64
  %switch.gep = getelementptr inbounds nuw [3 x i32], ptr @switch.table.DBus_ExtractThemeVariant, i64 0, i64 %18
  %switch.load = load i32, ptr %switch.gep, align 4
  store i32 %switch.load, ptr @system_theme_data.1, align 8
  br label %19

19:                                               ; preds = %13, %switch.lookup, %8, %1
  %.0 = phi i1 [ false, %1 ], [ false, %8 ], [ true, %13 ], [ true, %switch.lookup ]
  call void @llvm.lifetime.end.p0(i64 72, ptr nonnull %3) #4
  call void @llvm.lifetime.end.p0(i64 4, ptr nonnull %2) #4
  ret i1 %.0
}